(dp1
S'output'
p2
S"<type 'exceptions.NameError'> name 'form' is not defined"
p3
sS'layer'
p4
S'/home/donato/Desktop/web2py/applications/ProyInterfazUsuario/views/default/homeNinio.html'
p5
sS'code'
p6
S'response.write(\'<!DOCTYPE html>\\n<!--[if (gt IE 9)|!(IE)]><!--> \\n<html class="no-js" lang="\', escape=False)\nresponse.write(T.accepted_language or \'en\')\nresponse.write(\'"> <!--<![endif]-->\\n  <head>\\n    <meta charset="utf-8">\\n    <!-- www.phpied.com/conditional-comments-block-downloads/ -->\\n    <!-- Always force latest IE rendering engine\\n         (even in intranet) & Chrome Frame\\n         Remove this if you use the .htaccess -->\\n    <meta http-equiv="X-UA-Compatible" content="IE=edge\', escape=False)\nresponse.write(not request.is_local and \',chrome=1\' or \'\')\nresponse.write(\'">\\n    <!--  Mobile Viewport Fix\\n          j.mp/mobileviewport & davidbcalhoun.com/2010/viewport-metatag\\n          device-width: Occupy full width of the screen in its current orientation\\n          initial-scale = 1.0 retains dimensions instead of zooming out if page height > device height\\n          user-scalable = yes allows the user to zoom in -->\\n    <meta name="viewport" content="width=device-width, initial-scale=1.0">\\n    <!-- http://dev.w3.org/html5/markup/meta.name.html -->\\n    <meta name="application-name" content="\', escape=False)\nresponse.write(request.application)\nresponse.write(\'">\\n    <!-- Speaking of Google, don\\\'t forget to set your site up:\\n         http://google.com/webmasters -->\\n    <meta name="google-site-verification" content="">\\n    <!-- include stylesheets -->\\n    <link rel="stylesheet" href="\', escape=False)\nresponse.write(URL(\'static\',\'css/bootstrap.min.css\'))\nresponse.write(\'">\\n    <link rel="stylesheet" href="\', escape=False)\nresponse.write(URL(\'static\',\'css/web2py-bootstrap4.css\'))\nresponse.write(\'">\\n    <link rel="stylesheet" href="\', escape=False)\nresponse.write(URL(\'static\',\'css/fontawesome-all.css\'))\nresponse.write(\'">\\n    <link rel="shortcut icon" href="\', escape=False)\nresponse.write(URL(\'static\',\'images/favicon.ico\'))\nresponse.write(\'" type="image/x-icon">\\n    <link rel="apple-touch-icon" href="\', escape=False)\nresponse.write(URL(\'static\',\'images/favicon.png\'))\nresponse.write(\'">\\n    <!-- All JavaScript at the bottom, except for Modernizr which enables\\n         HTML5 elements & feature detects -->\\n    <script src="\', escape=False)\nresponse.write(URL(\'static\',\'js/modernizr-2.8.3.min.js\'))\nresponse.write(\'"></script>\\n    <!-- Favicons -->\\n    \', escape=False)\nresponse.write(\'<script type="text/javascript"><!--\\n    // These variables are used by the web2py_ajax_init function in web2py_ajax.js (which is loaded below).\\n    \', escape=False)\nresponse.write(ASSIGNJS(\nw2p_ajax_confirm_message = T(\'Are you sure you want to delete this object?\'),\nw2p_ajax_disable_with_message = T(\'Working...\'),\nw2p_ajax_date_format = T(\'%Y-%m-%d\'),\nw2p_ajax_datetime_format = T(\'%Y-%m-%d %H:%M:%S\'),\najax_error_500 = T.M(\'An error occured, please [[reload %s]] the page\') % URL(args=request.args, vars=request.get_vars)\n))\nresponse.write(\'\\n    //--></script>\\n\', escape=False)\nresponse.files.insert(0,URL(\'static\',\'js/jquery.js\'))\nresponse.files.insert(1,URL(\'static\',\'css/calendar.css\'))\nresponse.files.insert(2,URL(\'static\',\'js/calendar.js\'))\nresponse.files.insert(3,URL(\'static\',\'js/web2py.js\'))\nresponse.include_meta()\nresponse.include_files()\nresponse.write(\'\\n\', escape=False)\nresponse.write(\' <!-- this includes jquery.js, calendar.js/.css and web2py.js -->\\n    \', escape=False)\nresponse.write(\'\\n    <link rel="stylesheet" href="\', escape=False)\nresponse.write(URL(\'static\',\'css/default/layout.css\'))\nresponse.write(\'"/>\\n\', escape=False)\nresponse.write(\'\\n    <title>AutismWorld - Home</title>\\n    <link rel="stylesheet" href="\', escape=False)\nresponse.write(URL(\'static\',\'css/ajustes.css\'))\nresponse.write(\'">\\n</head> <!-- <head> abre en encabezado.html -->\\n<body>\\n    <!-- Navbar ======================================= -->\\n    <nav class="navbar navbar-expand-md sticky-top navbar-light" style="background-color: #FFF">\\n<!--       <a class="navbar-brand" href="\', escape=False)\nresponse.write(URL(\'default\', \'home\'))\nresponse.write(\'"> -->\\n\\t    <img class="img-fluid" id="logo" src="\', escape=False)\nresponse.write(URL(\'static\',\'images/logo.jpg\'))\nresponse.write(\'" alt="Logo">\\n\\t    <img src="">\\n      <!-- </a> -->\\n     \\t<text style="font-size: 50px">AutismWorld</text>\\n    \\t<img class="img-fluid d-none d-xl-block" id="logoUSB" src="\', escape=False)\nresponse.write(URL(\'static\',\'images/LogoUSB.png\'))\nresponse.write(\'" alt="">\\n    </nav>\\n    <div class="container-fluid main-container" id="home">\\n    \\t<br><br>\\n        <div class="row" style="justify-content: center">\\n        \\t<div class="col-7">\\n    \\t\\t\\t<center>\\n    \\t\\t\\t\\t<h2>Bienvenido a AutismWorld</h2>\\n    \\t\\t\\t\\t<b>AutismWorld</b> es una interfaz grafica, donde se evaluan los problemas de los ninios con <b>Autismo(TAC)</b>. Para esto, se enfoca en atender las practicas y los problemas actuales que enfrentan estos ninios en sus diferentes modalidades (Linguistica, Alimenticia, Motoras, Neuronales y Sensoriales)\\n    \\t\\t\\t</center>\\n        \\t</div>\\n        \\t<div class="col-3" id="login">\\n        \\t\\t<br>\\n        \\t\\t<div id="web2py_user_form">\\n\\t\\t\\t\\t  \', escape=False)\nresponse.write(form)\nresponse.write(\'\\n\\t\\t\\t\\t  \', escape=False)\nif request.args(0)==\'login\':\n    response.write(\'\\n\\t\\t\\t\\t    \', escape=False)\n    if not \'register\' in auth.settings.actions_disabled:\n        response.write(\'\\n\\t\\t\\t\\t      <br/><a href="">register</a>\\n\\t\\t\\t\\t    \', escape=False)\n        pass\n    response.write(\'\\n\\t\\t\\t\\t    \', escape=False)\n    if not \'request_reset_password\' in auth.settings.actions_disabled:\n        response.write(\'\\n\\t\\t\\t\\t      <br/>\\n\\t\\t\\t\\t      <a href="">lost password</a>\\n\\t\\t\\t\\t    \', escape=False)\n        pass\n    response.write(\'\\n\\t\\t\\t\\t  \', escape=False)\n    pass\nresponse.write(\'\\n\\t\\t\\t\\t</div>\\n\\t\\t\\t\\t<br>\\n\\t\\t\\t</div>\\n        </div>\\n    </div>\\n</body>\\n</html>\\n\', escape=False)'
p7
sS'snapshot'
p8
(dp9
sS'traceback'
p10
S'Traceback (most recent call last):\n  File "/home/donato/Desktop/web2py/gluon/restricted.py", line 219, in restricted\n    exec(ccode, environment)\n  File "/home/donato/Desktop/web2py/applications/ProyInterfazUsuario/views/default/homeNinio.html", line 49, in <module>\nNameError: name \'form\' is not defined\n'
p11
s.